; Function Attrs: nounwind uwtable
define i32 @evp_method_store_remove_all_provided(ptr noundef %0) local_unnamed_addr #0 {
  %2 = tail call ptr @ossl_provider_libctx(ptr noundef %0) #5
  %3 = tail call ptr @ossl_lib_ctx_get_data(ptr noundef %2, i32 noundef 0) #5
  %.not = icmp eq ptr %3, null
  br i1 %.not, label %6, label %4

4:                                                ; preds = %1
  %5 = tail call i32 @ossl_method_store_remove_all_provided(ptr noundef nonnull %3, ptr noundef %0) #5
  br label %6

6:                                                ; preds = %1, %4
  %.0 = phi i32 [ %5, %4 ], [ 1, %1 ]
  ret i32 %.0
}